CCS PCM C Compiler, Version 5.045, 55890               04-Oct.-15 20:43

               Filename:   D:\Documentos\Proyectos\PapaNoel.X\build\default\production\PapaNoel.lst

               ROM used:   84 words (4%)
                           Largest free fragment is 1964
               RAM used:   7 (3%) at main() level
                           8 (4%) worst case
               Stack used: 0 locations
               Stack size: 8

*
0000:  MOVLW  00
0001:  MOVWF  0A
0002:  GOTO   019
0003:  NOP
.................... #include <16F628A.h> 
.................... //////////// Standard Header file for the PIC16F628A device //////////////// 
.................... /////////////////////////////////////////////////////////////////////////// 
.................... ////        (C) Copyright 1996, 2014 Custom Computer Services          //// 
.................... //// This source code may only be used by licensed users of the CCS C  //// 
.................... //// compiler.  This source code may only be distributed to other      //// 
.................... //// licensed users of the CCS C compiler.  No other use, reproduction //// 
.................... //// or distribution is permitted without written permission.          //// 
.................... //// Derivative programs created using this software in object code    //// 
.................... //// form are not restricted in any way.                               //// 
.................... /////////////////////////////////////////////////////////////////////////// 
.................... #device PIC16F628A 
....................  
.................... #list 
....................  
.................... #FUSES NOWDT 
.................... #FUSES NOPUT 
.................... #FUSES MCLR 
.................... #FUSES NOBROWNOUT 
.................... #FUSES NOPROTECT 
.................... #FUSES NOCPD 
.................... #use delay(crystal=4M) 
0004:  MOVLW  23
0005:  MOVWF  04
0006:  BCF    03.7
0007:  MOVF   00,W
0008:  BTFSC  03.2
0009:  GOTO   018
000A:  MOVLW  01
000B:  MOVWF  78
000C:  CLRF   77
000D:  DECFSZ 77,F
000E:  GOTO   00D
000F:  DECFSZ 78,F
0010:  GOTO   00C
0011:  MOVLW  4A
0012:  MOVWF  77
0013:  DECFSZ 77,F
0014:  GOTO   013
0015:  GOTO   016
0016:  DECFSZ 00,F
0017:  GOTO   00A
0018:  RETURN
....................  
....................  
.................... #define SENSOR      PIN_A2 
.................... #define SONIDO      PIN_A1 
.................... #define MOTOR       PIN_B3 
....................  
.................... void main(void){ 
0019:  MOVF   03,W
001A:  ANDLW  1F
001B:  MOVWF  03
001C:  MOVLW  07
001D:  MOVWF  1F
001E:  BCF    03.7
....................     output_low(SONIDO); 
001F:  BSF    03.5
0020:  BCF    05.1
0021:  BCF    03.5
0022:  BCF    05.1
....................     output_high(MOTOR); 
0023:  BSF    03.5
0024:  BCF    06.3
0025:  BCF    03.5
0026:  BSF    06.3
....................     while(TRUE){ 
....................         if(!input_state(SENSOR)){ 
0027:  BTFSC  05.2
0028:  GOTO   052
....................             output_high(SONIDO); 
0029:  BSF    03.5
002A:  BCF    05.1
002B:  BCF    03.5
002C:  BSF    05.1
....................             output_low(MOTOR); 
002D:  BSF    03.5
002E:  BCF    06.3
002F:  BCF    03.5
0030:  BCF    06.3
....................             for(int i = 0; i < 15; i++){ 
0031:  CLRF   21
0032:  MOVF   21,W
0033:  SUBLW  0E
0034:  BTFSS  03.0
0035:  GOTO   047
....................                 delay_ms(10000); 
0036:  MOVLW  28
0037:  MOVWF  22
0038:  MOVLW  FA
0039:  MOVWF  23
003A:  CALL   004
003B:  DECFSZ 22,F
003C:  GOTO   038
....................                 output_high(SONIDO); 
003D:  BSF    03.5
003E:  BCF    05.1
003F:  BCF    03.5
0040:  BSF    05.1
....................                 output_low(MOTOR); 
0041:  BSF    03.5
0042:  BCF    06.3
0043:  BCF    03.5
0044:  BCF    06.3
0045:  INCF   21,F
0046:  GOTO   032
....................             } 
....................             output_low(SONIDO); 
0047:  BSF    03.5
0048:  BCF    05.1
0049:  BCF    03.5
004A:  BCF    05.1
....................             output_high(MOTOR); 
004B:  BSF    03.5
004C:  BCF    06.3
004D:  BCF    03.5
004E:  BSF    06.3
....................             delay_ms(100); 
004F:  MOVLW  64
0050:  MOVWF  23
0051:  CALL   004
....................         } 
0052:  GOTO   027
....................     } 
.................... } 
....................  
0053:  SLEEP

Configuration Fuses:
   Word  1: 2129   NOWDT NOPUT XT MCLR NOBROWNOUT NOLVP NOCPD NOPROTECT
